target datalayout = "e-m:e-p270:32:32-p271:32:32-p272:64:64-i64:64-i128:128-f80:128-n8:16:32:64-S128"
target triple = "x86_64-pc-linux-gnu"

%struct.StringInfoData = type { ptr, i32, i32, i32 }

; Function Attrs: nounwind uwtable
define dso_local void @appendBinaryStringInfo(ptr noundef %0, ptr noundef %1, i32 noundef %2) #0 {
  %4 = alloca ptr, align 8
  %5 = alloca ptr, align 8
  %6 = alloca i32, align 4
  store ptr %0, ptr %4, align 8
  store ptr %1, ptr %5, align 8
  store i32 %2, ptr %6, align 4
  %7 = load ptr, ptr %4, align 8
  %8 = load i32, ptr %6, align 4
  call void @enlargeStringInfo(ptr noundef %7, i32 noundef %8)
  %9 = load ptr, ptr %4, align 8
  %10 = getelementptr inbounds nuw %struct.StringInfoData, ptr %9, i32 0, i32 0
  %11 = load ptr, ptr %10, align 8
  %12 = load ptr, ptr %4, align 8
  %13 = getelementptr inbounds nuw %struct.StringInfoData, ptr %12, i32 0, i32 1
  %14 = load i32, ptr %13, align 8
  %15 = sext i32 %14 to i64
  %16 = getelementptr inbounds i8, ptr %11, i64 %15
  %17 = load ptr, ptr %5, align 8
  %18 = load i32, ptr %6, align 4
  %19 = sext i32 %18 to i64
  call void @llvm.memcpy.p0.p0.i64(ptr align 1 %16, ptr align 1 %17, i64 %19, i1 false)
  %20 = load i32, ptr %6, align 4
  %21 = load ptr, ptr %4, align 8
  %22 = getelementptr inbounds nuw %struct.StringInfoData, ptr %21, i32 0, i32 1
  %23 = load i32, ptr %22, align 8
  %24 = add i32 %23, %20
  store i32 %24, ptr %22, align 8
  %25 = load ptr, ptr %4, align 8
  %26 = getelementptr inbounds nuw %struct.StringInfoData, ptr %25, i32 0, i32 0
  %27 = load ptr, ptr %26, align 8
  %28 = load ptr, ptr %4, align 8
  %29 = getelementptr inbounds nuw %struct.StringInfoData, ptr %28, i32 0, i32 1
  %30 = load i32, ptr %29, align 8
  %31 = sext i32 %30 to i64
  %32 = getelementptr inbounds i8, ptr %27, i64 %31
  store i8 0, ptr %32, align 1
  ret void
}

; Function Attrs: nounwind uwtable
define dso_local void @appendStringInfoString(ptr noundef %0, ptr noundef %1) #0 {
  %3 = alloca ptr, align 8
  %4 = alloca ptr, align 8
  store ptr %0, ptr %3, align 8
  store ptr %1, ptr %4, align 8
  %5 = load ptr, ptr %3, align 8
  %6 = load ptr, ptr %4, align 8
  %7 = load ptr, ptr %4, align 8
  %8 = call i64 @strlen(ptr noundef %7) #13
  %9 = trunc i64 %8 to i32
  call void @appendBinaryStringInfo(ptr noundef %5, ptr noundef %6, i32 noundef %9)
  ret void
}