; Function Attrs: nounwind uwtable
define dso_local void @appendStringInfoString(ptr noundef captures(none) %0, ptr noundef readonly captures(none) %1) local_unnamed_addr #0 {
  %3 = tail call i64 @strlen(ptr noundef nonnull dereferenceable(1) %1) #15
  %4 = trunc i64 %3 to i32
  tail call void @enlargeStringInfo(ptr noundef %0, i32 noundef %4)
  %5 = load ptr, ptr %0, align 8
  %6 = getelementptr inbounds nuw i8, ptr %0, i64 8
  %7 = load i32, ptr %6, align 8
  %8 = sext i32 %7 to i64
  %9 = getelementptr inbounds i8, ptr %5, i64 %8
  %sext = shl i64 %3, 32
  %10 = ashr exact i64 %sext, 32
  tail call void @llvm.memcpy.p0.p0.i64(ptr align 1 %9, ptr nonnull readonly align 1 %1, i64 %10, i1 false)
  %11 = load i32, ptr %6, align 8
  %12 = add i32 %11, %4
  store i32 %12, ptr %6, align 8
  %13 = load ptr, ptr %0, align 8
  %14 = sext i32 %12 to i64
  %15 = getelementptr inbounds i8, ptr %13, i64 %14
  store i8 0, ptr %15, align 1
  ret void
}